target datalayout = "e-m:e-p270:32:32-p271:32:32-p272:64:64-i64:64-i128:128-f80:128-n8:16:32:64-S128"
target triple = "x86_64-pc-linux-gnu"

%struct.TabList = type { [32 x %struct.Tab], i32, i32, i32 }
%struct.Tab = type { ptr, i64 }
%struct.VVCFrameContext = type { ptr, [17 x %struct.VVCFrame], ptr, ptr, %struct.VVCFrameParamSets, ptr, i32, i32, ptr, %struct.VVCDSPContext, %struct.VideoDSPContext, ptr, i64, ptr, ptr, ptr, ptr, %struct.anon }
%struct.VVCFrame = type { ptr, ptr, ptr, ptr, ptr, ptr, i32, i32, i32, %struct.VVCWindow, i32, i32, ptr, ptr, i16, i8, ptr }
%struct.VVCWindow = type { i16, i16, i16, i16 }
%struct.VVCFrameParamSets = type { ptr, ptr, %struct.VVCPH, [8 x ptr], %struct.VVCLMCS, ptr }
%struct.VVCPH = type { ptr, ptr, i32, i32, i8, [3 x i16], i8, [3 x i16], %struct.PredWeightTable }
%struct.PredWeightTable = type { [2 x i8], [2 x i8], [2 x [2 x [15 x i8]]], [2 x [3 x [15 x i16]]], [2 x [3 x [15 x i16]]] }
%struct.VVCLMCS = type { i8, i8, %union.anon.0, %union.anon.0, [17 x i16], [16 x i16] }
%union.anon.0 = type { [4096 x i16] }
%struct.VVCDSPContext = type { %struct.VVCInterDSPContext, %struct.VVCIntraDSPContext, %struct.VVCItxDSPContext, %struct.VVCLMCSDSPContext, %struct.VVCLFDSPContext, %struct.VVCSAODSPContext, %struct.VVCALFDSPContext }
%struct.VVCInterDSPContext = type { [2 x [7 x [2 x [2 x ptr]]]], [2 x [7 x [2 x [2 x ptr]]]], [2 x [7 x [2 x [2 x ptr]]]], [2 x [7 x ptr]], [2 x [7 x ptr]], [2 x [7 x ptr]], ptr, ptr, ptr, ptr, ptr, ptr, ptr, ptr, ptr, ptr, ptr, [2 x [2 x ptr]] }
%struct.VVCIntraDSPContext = type { ptr, ptr, ptr, ptr, ptr, ptr, ptr, ptr, ptr, ptr }
%struct.VVCItxDSPContext = type { ptr, ptr, [3 x [6 x ptr]], ptr, ptr }
%struct.VVCLMCSDSPContext = type { ptr }
%struct.VVCLFDSPContext = type { [2 x ptr], [2 x ptr], [2 x ptr] }
%struct.VVCSAODSPContext = type { [9 x ptr], [9 x ptr], [2 x ptr] }
%struct.VVCALFDSPContext = type { [2 x ptr], ptr, ptr, ptr }
%struct.VideoDSPContext = type { ptr, ptr }
%struct.anon = type { ptr, ptr, ptr, ptr, [2 x ptr], [2 x ptr], [2 x ptr], [2 x ptr], [2 x ptr], [3 x ptr], ptr, ptr, [2 x ptr], ptr, ptr, [2 x ptr], ptr, ptr, ptr, [2 x ptr], ptr, [3 x ptr], ptr, [2 x ptr], [2 x ptr], [2 x ptr], [2 x [3 x ptr]], [2 x ptr], [2 x ptr], [3 x ptr], [3 x ptr], [3 x [2 x ptr]], [3 x [2 x ptr]], ptr, ptr, ptr, [3 x ptr], %struct.anon.1 }
%struct.anon.1 = type { i32, i32, i32, i32, i32, i32, i32, i32, i32, i32, i32, i32 }
%struct.SliceContext = type { i32, %struct.VVCSH, ptr, i32, ptr, ptr }
%struct.VVCSH = type { ptr, i32, ptr, %struct.PredWeightTable, [2 x i8], i8, %struct.DBParams, [2 x i8], [2 x i8], [2 x i8], [2 x i8], i8, i8, [4050 x i32] }
%struct.DBParams = type { [3 x i8], [3 x i8] }

; Function Attrs: nounwind uwtable
define internal i32 @frame_context_for_each_tl(ptr noundef %0, ptr noundef %1) #0 {
  %3 = alloca i32, align 4
  %4 = alloca ptr, align 8
  %5 = alloca ptr, align 8
  %6 = alloca [11 x ptr], align 16
  %7 = alloca i32, align 4
  %8 = alloca i32, align 4
  %9 = alloca %struct.TabList, align 8
  %10 = alloca i32, align 4
  store ptr %0, ptr %4, align 8, !tbaa !4
  store ptr %1, ptr %5, align 8, !tbaa !9
  call void @llvm.lifetime.start.p0(i64 88, ptr %6) #9
  call void @llvm.memcpy.p0.p0.i64(ptr align 16 %6, ptr align 16 @__const.frame_context_for_each_tl.init, i64 88, i1 false)
  call void @llvm.lifetime.start.p0(i64 4, ptr %7) #9
  store i32 0, ptr %7, align 4, !tbaa !10
  br label %11

11:                                               ; preds = %32, %2
  %12 = load i32, ptr %7, align 4, !tbaa !10
  %13 = sext i32 %12 to i64
  %14 = icmp ult i64 %13, 11
  br i1 %14, label %16, label %15

15:                                               ; preds = %11
  store i32 2, ptr %8, align 4
  br label %35

16:                                               ; preds = %11
  call void @llvm.lifetime.start.p0(i64 528, ptr %9) #9
  call void @llvm.lifetime.start.p0(i64 4, ptr %10) #9
  %17 = load i32, ptr %7, align 4, !tbaa !10
  %18 = sext i32 %17 to i64
  %19 = getelementptr inbounds [11 x ptr], ptr %6, i64 0, i64 %18
  %20 = load ptr, ptr %19, align 8, !tbaa !9
  %21 = load ptr, ptr %4, align 8, !tbaa !4
  call void %20(ptr noundef %9, ptr noundef %21)
  %22 = load ptr, ptr %5, align 8, !tbaa !9
  %23 = call i32 %22(ptr noundef %9)
  store i32 %23, ptr %10, align 4, !tbaa !10
  %24 = load i32, ptr %10, align 4, !tbaa !10
  %25 = icmp slt i32 %24, 0
  br i1 %25, label %26, label %28

26:                                               ; preds = %16
  %27 = load i32, ptr %10, align 4, !tbaa !10
  store i32 %27, ptr %3, align 4
  store i32 1, ptr %8, align 4
  br label %29

28:                                               ; preds = %16
  store i32 0, ptr %8, align 4
  br label %29

29:                                               ; preds = %28, %26
  call void @llvm.lifetime.end.p0(i64 4, ptr %10) #9
  call void @llvm.lifetime.end.p0(i64 528, ptr %9) #9
  %30 = load i32, ptr %8, align 4
  switch i32 %30, label %35 [
    i32 0, label %31
  ]

31:                                               ; preds = %29
  br label %32

32:                                               ; preds = %31
  %33 = load i32, ptr %7, align 4, !tbaa !10
  %34 = add nsw i32 %33, 1
  store i32 %34, ptr %7, align 4, !tbaa !10
  br label %11, !llvm.loop !12

35:                                               ; preds = %29, %15
  call void @llvm.lifetime.end.p0(i64 4, ptr %7) #9
  %36 = load i32, ptr %8, align 4
  switch i32 %36, label %38 [
    i32 2, label %37
  ]

37:                                               ; preds = %35
  store i32 0, ptr %3, align 4
  store i32 1, ptr %8, align 4
  br label %38

38:                                               ; preds = %37, %35
  call void @llvm.lifetime.end.p0(i64 88, ptr %6) #9
  %39 = load i32, ptr %3, align 4
  ret i32 %39
}

; Function Attrs: nounwind uwtable
define internal void @free_cus(ptr noundef %0) #0 {
  %2 = alloca ptr, align 8
  %3 = alloca i32, align 4
  store ptr %0, ptr %2, align 8, !tbaa !4
  %4 = load ptr, ptr %2, align 8, !tbaa !4
  %5 = getelementptr inbounds nuw %struct.VVCFrameContext, ptr %4, i32 0, i32 17
  %6 = getelementptr inbounds nuw %struct.anon, ptr %5, i32 0, i32 35
  %7 = load ptr, ptr %6, align 8, !tbaa !299
  %8 = icmp ne ptr %7, null
  br i1 %8, label %9, label %31

9:                                                ; preds = %1
  call void @llvm.lifetime.start.p0(i64 4, ptr %3) #9
  store i32 0, ptr %3, align 4, !tbaa !10
  br label %10

10:                                               ; preds = %27, %9
  %11 = load i32, ptr %3, align 4, !tbaa !10
  %12 = load ptr, ptr %2, align 8, !tbaa !4
  %13 = getelementptr inbounds nuw %struct.VVCFrameContext, ptr %12, i32 0, i32 17
  %14 = getelementptr inbounds nuw %struct.anon, ptr %13, i32 0, i32 37
  %15 = getelementptr inbounds nuw %struct.anon.1, ptr %14, i32 0, i32 0
  %16 = load i32, ptr %15, align 8, !tbaa !123
  %17 = icmp slt i32 %11, %16
  br i1 %17, label %19, label %18

18:                                               ; preds = %10
  call void @llvm.lifetime.end.p0(i64 4, ptr %3) #9
  br label %30

19:                                               ; preds = %10
  %20 = load ptr, ptr %2, align 8, !tbaa !4
  %21 = getelementptr inbounds nuw %struct.VVCFrameContext, ptr %20, i32 0, i32 17
  %22 = getelementptr inbounds nuw %struct.anon, ptr %21, i32 0, i32 35
  %23 = load ptr, ptr %22, align 8, !tbaa !299
  %24 = load i32, ptr %3, align 4, !tbaa !10
  %25 = sext i32 %24 to i64
  %26 = getelementptr inbounds ptr, ptr %23, i64 %25
  call void @ff_vvc_ctu_free_cus(ptr noundef %26)
  br label %27

27:                                               ; preds = %19
  %28 = load i32, ptr %3, align 4, !tbaa !10
  %29 = add nsw i32 %28, 1
  store i32 %29, ptr %3, align 4, !tbaa !10
  br label %10, !llvm.loop !302

30:                                               ; preds = %18
  br label %31

31:                                               ; preds = %30, %1
  ret void
}

; Function Attrs: nounwind uwtable
define internal void @eps_free(ptr noundef %0) #0 {
  %2 = alloca ptr, align 8
  store ptr %0, ptr %2, align 8, !tbaa !219
  %3 = load ptr, ptr %2, align 8, !tbaa !219
  %4 = getelementptr inbounds nuw %struct.SliceContext, ptr %3, i32 0, i32 2
  call void @av_freep(ptr noundef %4)
  %5 = load ptr, ptr %2, align 8, !tbaa !219
  %6 = getelementptr inbounds nuw %struct.SliceContext, ptr %5, i32 0, i32 3
  store i32 0, ptr %6, align 8, !tbaa !248
  ret void
}

; Function Attrs: nounwind uwtable
define internal void @pic_arrays_free(ptr noundef %0) #0 {
  %2 = alloca ptr, align 8
  store ptr %0, ptr %2, align 8, !tbaa !4
  %3 = load ptr, ptr %2, align 8, !tbaa !4
  call void @free_cus(ptr noundef %3)
  %4 = load ptr, ptr %2, align 8, !tbaa !4
  %5 = call i32 @frame_context_for_each_tl(ptr noundef %4, ptr noundef @tl_free)
  %6 = load ptr, ptr %2, align 8, !tbaa !4
  %7 = getelementptr inbounds nuw %struct.VVCFrameContext, ptr %6, i32 0, i32 14
  call void @av_refstruct_pool_uninit(ptr noundef %7)
  %8 = load ptr, ptr %2, align 8, !tbaa !4
  %9 = getelementptr inbounds nuw %struct.VVCFrameContext, ptr %8, i32 0, i32 13
  call void @av_refstruct_pool_uninit(ptr noundef %9)
  %10 = load ptr, ptr %2, align 8, !tbaa !4
  %11 = getelementptr inbounds nuw %struct.VVCFrameContext, ptr %10, i32 0, i32 17
  %12 = getelementptr inbounds nuw %struct.anon, ptr %11, i32 0, i32 37
  call void @llvm.memset.p0.i64(ptr align 8 %12, i8 0, i64 48, i1 false)
  ret void
}

; Function Attrs: inlinehint nounwind uwtable
define internal void @av_refstruct_pool_uninit(ptr noundef %0) #7 {
  %2 = alloca ptr, align 8
  store ptr %0, ptr %2, align 8, !tbaa !304
  %3 = load ptr, ptr %2, align 8, !tbaa !304
  call void @av_refstruct_unref(ptr noundef %3)
  ret void
}

; Function Attrs: nounwind uwtable
define internal void @slices_free(ptr noundef %0) #0 {
  %2 = alloca ptr, align 8
  %3 = alloca i32, align 4
  %4 = alloca ptr, align 8
  store ptr %0, ptr %2, align 8, !tbaa !4
  %5 = load ptr, ptr %2, align 8, !tbaa !4
  %6 = getelementptr inbounds nuw %struct.VVCFrameContext, ptr %5, i32 0, i32 5
  %7 = load ptr, ptr %6, align 8, !tbaa !218
  %8 = icmp ne ptr %7, null
  br i1 %8, label %9, label %42

9:                                                ; preds = %1
  call void @llvm.lifetime.start.p0(i64 4, ptr %3) #9
  store i32 0, ptr %3, align 4, !tbaa !10
  br label %10

10:                                               ; preds = %36, %9
  %11 = load i32, ptr %3, align 4, !tbaa !10
  %12 = load ptr, ptr %2, align 8, !tbaa !4
  %13 = getelementptr inbounds nuw %struct.VVCFrameContext, ptr %12, i32 0, i32 7
  %14 = load i32, ptr %13, align 4, !tbaa !227
  %15 = icmp slt i32 %11, %14
  br i1 %15, label %17, label %16

16:                                               ; preds = %10
  call void @llvm.lifetime.end.p0(i64 4, ptr %3) #9
  br label %39

17:                                               ; preds = %10
  call void @llvm.lifetime.start.p0(i64 8, ptr %4) #9
  %18 = load ptr, ptr %2, align 8, !tbaa !4
  %19 = getelementptr inbounds nuw %struct.VVCFrameContext, ptr %18, i32 0, i32 5
  %20 = load ptr, ptr %19, align 8, !tbaa !218
  %21 = load i32, ptr %3, align 4, !tbaa !10
  %22 = sext i32 %21 to i64
  %23 = getelementptr inbounds ptr, ptr %20, i64 %22
  %24 = load ptr, ptr %23, align 8, !tbaa !219
  store ptr %24, ptr %4, align 8, !tbaa !219
  %25 = load ptr, ptr %4, align 8, !tbaa !219
  %26 = icmp ne ptr %25, null
  br i1 %26, label %27, label %35

27:                                               ; preds = %17
  %28 = load ptr, ptr %4, align 8, !tbaa !219
  %29 = getelementptr inbounds nuw %struct.SliceContext, ptr %28, i32 0, i32 5
  call void @av_refstruct_unref(ptr noundef %29)
  %30 = load ptr, ptr %4, align 8, !tbaa !219
  %31 = getelementptr inbounds nuw %struct.SliceContext, ptr %30, i32 0, i32 1
  %32 = getelementptr inbounds nuw %struct.VVCSH, ptr %31, i32 0, i32 0
  call void @av_refstruct_unref(ptr noundef %32)
  %33 = load ptr, ptr %4, align 8, !tbaa !219
  call void @eps_free(ptr noundef %33)
  %34 = load ptr, ptr %4, align 8, !tbaa !219
  call void @av_free(ptr noundef %34)
  br label %35

35:                                               ; preds = %27, %17
  call void @llvm.lifetime.end.p0(i64 8, ptr %4) #9
  br label %36

36:                                               ; preds = %35
  %37 = load i32, ptr %3, align 4, !tbaa !10
  %38 = add nsw i32 %37, 1
  store i32 %38, ptr %3, align 4, !tbaa !10
  br label %10, !llvm.loop !338

39:                                               ; preds = %16
  %40 = load ptr, ptr %2, align 8, !tbaa !4
  %41 = getelementptr inbounds nuw %struct.VVCFrameContext, ptr %40, i32 0, i32 5
  call void @av_freep(ptr noundef %41)
  br label %42

42:                                               ; preds = %39, %1
  %43 = load ptr, ptr %2, align 8, !tbaa !4
  %44 = getelementptr inbounds nuw %struct.VVCFrameContext, ptr %43, i32 0, i32 7
  store i32 0, ptr %44, align 4, !tbaa !227
  %45 = load ptr, ptr %2, align 8, !tbaa !4
  %46 = getelementptr inbounds nuw %struct.VVCFrameContext, ptr %45, i32 0, i32 6
  store i32 0, ptr %46, align 8, !tbaa !75
  ret void
}

; Function Attrs: cold nounwind optsize uwtable
define internal void @frame_context_free(ptr noundef %0) #1 {
  %2 = alloca ptr, align 8
  %3 = alloca i32, align 4
  store ptr %0, ptr %2, align 8, !tbaa !4
  %4 = load ptr, ptr %2, align 8, !tbaa !4
  call void @slices_free(ptr noundef %4)
  %5 = load ptr, ptr %2, align 8, !tbaa !4
  %6 = getelementptr inbounds nuw %struct.VVCFrameContext, ptr %5, i32 0, i32 16
  call void @av_refstruct_pool_uninit(ptr noundef %6)
  %7 = load ptr, ptr %2, align 8, !tbaa !4
  %8 = getelementptr inbounds nuw %struct.VVCFrameContext, ptr %7, i32 0, i32 15
  call void @av_refstruct_pool_uninit(ptr noundef %8)
  call void @llvm.lifetime.start.p0(i64 4, ptr %3) #9
  store i32 0, ptr %3, align 4, !tbaa !10
  br label %9

9:                                                ; preds = %27, %1
  %10 = load i32, ptr %3, align 4, !tbaa !10
  %11 = sext i32 %10 to i64
  %12 = icmp ult i64 %11, 17
  br i1 %12, label %14, label %13

13:                                               ; preds = %9
  call void @llvm.lifetime.end.p0(i64 4, ptr %3) #9
  br label %30

14:                                               ; preds = %9
  %15 = load ptr, ptr %2, align 8, !tbaa !4
  %16 = load ptr, ptr %2, align 8, !tbaa !4
  %17 = getelementptr inbounds nuw %struct.VVCFrameContext, ptr %16, i32 0, i32 1
  %18 = load i32, ptr %3, align 4, !tbaa !10
  %19 = sext i32 %18 to i64
  %20 = getelementptr inbounds [17 x %struct.VVCFrame], ptr %17, i64 0, i64 %19
  call void @ff_vvc_unref_frame(ptr noundef %15, ptr noundef %20, i32 noundef -1)
  %21 = load ptr, ptr %2, align 8, !tbaa !4
  %22 = getelementptr inbounds nuw %struct.VVCFrameContext, ptr %21, i32 0, i32 1
  %23 = load i32, ptr %3, align 4, !tbaa !10
  %24 = sext i32 %23 to i64
  %25 = getelementptr inbounds [17 x %struct.VVCFrame], ptr %22, i64 0, i64 %24
  %26 = getelementptr inbounds nuw %struct.VVCFrame, ptr %25, i32 0, i32 0
  call void @av_frame_free(ptr noundef %26)
  br label %27

27:                                               ; preds = %14
  %28 = load i32, ptr %3, align 4, !tbaa !10
  %29 = add nsw i32 %28, 1
  store i32 %29, ptr %3, align 4, !tbaa !10
  br label %9, !llvm.loop !337

30:                                               ; preds = %13
  %31 = load ptr, ptr %2, align 8, !tbaa !4
  call void @ff_vvc_frame_thread_free(ptr noundef %31)
  %32 = load ptr, ptr %2, align 8, !tbaa !4
  call void @pic_arrays_free(ptr noundef %32)
  %33 = load ptr, ptr %2, align 8, !tbaa !4
  %34 = getelementptr inbounds nuw %struct.VVCFrameContext, ptr %33, i32 0, i32 3
  call void @av_frame_free(ptr noundef %34)
  %35 = load ptr, ptr %2, align 8, !tbaa !4
  %36 = getelementptr inbounds nuw %struct.VVCFrameContext, ptr %35, i32 0, i32 4
  call void @ff_vvc_frame_ps_free(ptr noundef %36)
  ret void
}