; Function Attrs: cold nounwind optsize uwtable
define internal fastcc void @frame_context_free(ptr noundef %0) unnamed_addr #1 {
  %2 = alloca %struct.TabList, align 8
  %3 = getelementptr inbounds nuw i8, ptr %0, i64 18936
  %4 = load ptr, ptr %3, align 8, !tbaa !122
  %.not.i = icmp eq ptr %4, null
  br i1 %.not.i, label %slices_free.exit, label %.preheader.i

.preheader.i:                                     ; preds = %1
  %5 = getelementptr inbounds nuw i8, ptr %0, i64 18948
  %6 = load i32, ptr %5, align 4, !tbaa !121
  %7 = icmp sgt i32 %6, 0
  br i1 %7, label %.lr.ph.i, label %._crit_edge.i

._crit_edge.i:                                    ; preds = %17, %.preheader.i
  tail call void @av_freep(ptr noundef nonnull %3) #10
  br label %slices_free.exit

.lr.ph.i:                                         ; preds = %.preheader.i, %17
  %8 = phi i32 [ %18, %17 ], [ %6, %.preheader.i ]
  %indvars.iv.i = phi i64 [ %indvars.iv.next.i, %17 ], [ 0, %.preheader.i ]
  %9 = load ptr, ptr %3, align 8, !tbaa !122
  %10 = getelementptr inbounds nuw ptr, ptr %9, i64 %indvars.iv.i
  %11 = load ptr, ptr %10, align 8, !tbaa !123
  %.not14.i = icmp eq ptr %11, null
  br i1 %.not14.i, label %17, label %12

12:                                               ; preds = %.lr.ph.i
  %13 = getelementptr inbounds nuw i8, ptr %11, i64 16704
  tail call void @av_refstruct_unref(ptr noundef nonnull %13) #10
  %14 = getelementptr inbounds nuw i8, ptr %11, i64 8
  tail call void @av_refstruct_unref(ptr noundef nonnull %14) #10
  %15 = getelementptr inbounds nuw i8, ptr %11, i64 16680
  tail call void @av_freep(ptr noundef nonnull %15) #10
  %16 = getelementptr inbounds nuw i8, ptr %11, i64 16688
  store i32 0, ptr %16, align 8, !tbaa !241
  tail call void @av_free(ptr noundef nonnull %11) #10
  %.pre.i = load i32, ptr %5, align 4, !tbaa !121
  br label %17

17:                                               ; preds = %12, %.lr.ph.i
  %18 = phi i32 [ %.pre.i, %12 ], [ %8, %.lr.ph.i ]
  %indvars.iv.next.i = add nuw nsw i64 %indvars.iv.i, 1
  %19 = sext i32 %18 to i64
  %20 = icmp slt i64 %indvars.iv.next.i, %19
  br i1 %20, label %.lr.ph.i, label %._crit_edge.i, !llvm.loop !292

slices_free.exit:                                 ; preds = %1, %._crit_edge.i
  %21 = getelementptr inbounds nuw i8, ptr %0, i64 18948
  store i32 0, ptr %21, align 4, !tbaa !121
  %22 = getelementptr inbounds nuw i8, ptr %0, i64 18944
  store i32 0, ptr %22, align 8, !tbaa !97
  %23 = getelementptr inbounds nuw i8, ptr %0, i64 21328
  tail call void @av_refstruct_unref(ptr noundef nonnull %23) #10
  %24 = getelementptr inbounds nuw i8, ptr %0, i64 21320
  tail call void @av_refstruct_unref(ptr noundef nonnull %24) #10
  %25 = getelementptr inbounds nuw i8, ptr %0, i64 8
  br label %53

26:                                               ; preds = %53
  tail call void @ff_vvc_frame_thread_free(ptr noundef nonnull %0) #10
  %27 = getelementptr inbounds nuw i8, ptr %0, i64 21904
  %28 = load ptr, ptr %27, align 8, !tbaa !164
  %.not.i.i = icmp eq ptr %28, null
  br i1 %.not.i.i, label %free_cus.exit.i, label %.preheader.i.i

.preheader.i.i:                                   ; preds = %26
  %29 = getelementptr inbounds nuw i8, ptr %0, i64 21936
  %30 = load i32, ptr %29, align 8, !tbaa !165
  %31 = icmp sgt i32 %30, 0
  br i1 %31, label %.lr.ph.i.i, label %free_cus.exit.i

.lr.ph.i.i:                                       ; preds = %.preheader.i.i, %.lr.ph.i.i
  %indvars.iv.i.i = phi i64 [ %indvars.iv.next.i.i, %.lr.ph.i.i ], [ 0, %.preheader.i.i ]
  %32 = load ptr, ptr %27, align 8, !tbaa !164
  %33 = getelementptr inbounds nuw ptr, ptr %32, i64 %indvars.iv.i.i
  tail call void @ff_vvc_ctu_free_cus(ptr noundef %33) #10
  %indvars.iv.next.i.i = add nuw nsw i64 %indvars.iv.i.i, 1
  %34 = load i32, ptr %29, align 8, !tbaa !165
  %35 = sext i32 %34 to i64
  %36 = icmp slt i64 %indvars.iv.next.i.i, %35
  br i1 %36, label %.lr.ph.i.i, label %free_cus.exit.i, !llvm.loop !166

free_cus.exit.i:                                  ; preds = %.lr.ph.i.i, %.preheader.i.i, %26
  %37 = getelementptr inbounds nuw i8, ptr %2, i64 512
  br label %38

.loopexit.i:                                      ; preds = %.lr.ph.i7.i, %38
  call void @llvm.lifetime.end.p0(i64 528, ptr nonnull %2) #10
  %indvars.iv.next.i6.i = add nuw nsw i64 %indvars.iv.i5.i, 1
  %exitcond.i.i = icmp eq i64 %indvars.iv.next.i6.i, 11
  br i1 %exitcond.i.i, label %pic_arrays_free.exit, label %38, !llvm.loop !4

38:                                               ; preds = %.loopexit.i, %free_cus.exit.i
  %indvars.iv.i5.i = phi i64 [ 0, %free_cus.exit.i ], [ %indvars.iv.next.i6.i, %.loopexit.i ]
  call void @llvm.lifetime.start.p0(i64 528, ptr nonnull %2) #10
  %39 = getelementptr inbounds nuw [11 x ptr], ptr @__const.frame_context_for_each_tl.init, i64 0, i64 %indvars.iv.i5.i
  %40 = load ptr, ptr %39, align 8, !tbaa !6
  call void %40(ptr noundef nonnull %2, ptr noundef nonnull %0) #10
  %41 = load i32, ptr %37, align 8, !tbaa !18
  %42 = icmp sgt i32 %41, 0
  br i1 %42, label %.lr.ph.i7.i, label %.loopexit.i

.lr.ph.i7.i:                                      ; preds = %38, %.lr.ph.i7.i
  %indvars.iv.i8.i = phi i64 [ %indvars.iv.next.i9.i, %.lr.ph.i7.i ], [ 0, %38 ]
  %43 = getelementptr inbounds nuw [32 x %struct.Tab], ptr %2, i64 0, i64 %indvars.iv.i8.i
  %44 = load ptr, ptr %43, align 8, !tbaa !13
  call void @av_freep(ptr noundef %44) #10
  %indvars.iv.next.i9.i = add nuw nsw i64 %indvars.iv.i8.i, 1
  %45 = load i32, ptr %37, align 8, !tbaa !18
  %46 = sext i32 %45 to i64
  %47 = icmp slt i64 %indvars.iv.next.i9.i, %46
  br i1 %47, label %.lr.ph.i7.i, label %.loopexit.i, !llvm.loop !168

pic_arrays_free.exit:                             ; preds = %.loopexit.i
  %48 = getelementptr inbounds nuw i8, ptr %0, i64 21312
  call void @av_refstruct_unref(ptr noundef nonnull %48) #10
  %49 = getelementptr inbounds nuw i8, ptr %0, i64 21304
  call void @av_refstruct_unref(ptr noundef nonnull %49) #10
  %50 = getelementptr inbounds nuw i8, ptr %0, i64 21936
  call void @llvm.memset.p0.i64(ptr noundef nonnull align 8 dereferenceable(48) %50, i8 0, i64 48, i1 false)
  %51 = getelementptr inbounds nuw i8, ptr %0, i64 1920
  call void @av_frame_free(ptr noundef nonnull %51) #10
  %52 = getelementptr inbounds nuw i8, ptr %0, i64 1928
  call void @ff_vvc_frame_ps_free(ptr noundef nonnull %52) #10
  ret void

53:                                               ; preds = %slices_free.exit, %53
  %indvars.iv = phi i64 [ 0, %slices_free.exit ], [ %indvars.iv.next, %53 ]
  %54 = getelementptr inbounds nuw [17 x %struct.VVCFrame], ptr %25, i64 0, i64 %indvars.iv
  tail call void @ff_vvc_unref_frame(ptr noundef nonnull %0, ptr noundef nonnull %54, i32 noundef -1) #10
  tail call void @av_frame_free(ptr noundef nonnull %54) #10
  %indvars.iv.next = add nuw nsw i64 %indvars.iv, 1
  %exitcond.not = icmp eq i64 %indvars.iv.next, 17
  br i1 %exitcond.not, label %26, label %53, !llvm.loop !293
}